Certificate:
    Data:
        Version: 3 (0x2)
        Serial Number: 7588141889046946395 (0x694e7ed829e7a25b)
    Signature Algorithm: ecdsa-with-SHA1
        Issuer: title=3/description=4, SN=5/searchGuide=6/businessCategory=7/postalAddress=8/postOfficeBox=9/physicalDeliveryOfficeName=10/telephoneNumber=11/telexNumber=12/teletexTerminalIdentifier=13/facsimileTelephoneNumber=14/x121Address=15/internationaliSDNNumber=16/registeredAddress=17/destinationIndicator=18/preferredDeliveryMethod=19/presentationAddress=20/supportedApplicationContext=21/member=22/owner=23/roleOccupant=24/seeAlso=25/userPassword=26/userCertificate=27/cACertificate=28/authorityRevocationList=29/certificateRevocationList=30/crossCertificatePair=31/name=32, GN=33/initials=34/generationQualifier=35/x500UniqueIdentifier=36/dnQualifier=37/enhancedSearchGuide=38/protocolInformation=39/distinguishedName=40/uniqueMember=41/houseIdentifier=42/supportedAlgorithms=43/deltaRevocationList=44/dmdName=45/pseudonym=46/role=47/url=48, CN=fabric-ca-server
        Validity
            Not Before: Oct  6 13:10:26 2017 GMT
            Not After : Oct  6 13:10:26 2018 GMT
        Subject: title=3/description=4, SN=5/searchGuide=6/businessCategory=7/postalAddress=8/postOfficeBox=9/physicalDeliveryOfficeName=10/telephoneNumber=11/telexNumber=12/teletexTerminalIdentifier=13/facsimileTelephoneNumber=14/x121Address=15/internationaliSDNNumber=16/registeredAddress=17/destinationIndicator=18/preferredDeliveryMethod=19/presentationAddress=20/supportedApplicationContext=21/member=22/owner=23/roleOccupant=24/seeAlso=25/userPassword=26/userCertificate=27/cACertificate=28/authorityRevocationList=29/certificateRevocationList=30/crossCertificatePair=31/name=32, GN=33/initials=34/generationQualifier=35/x500UniqueIdentifier=36/dnQualifier=37/enhancedSearchGuide=38/protocolInformation=39/distinguishedName=40/uniqueMember=41/houseIdentifier=42/supportedAlgorithms=43/deltaRevocationList=44/dmdName=45/pseudonym=46/role=47/url=48, CN=fabric-ca-server
        Subject Public Key Info:
            Public Key Algorithm: id-ecPublicKey
                Public-Key: (256 bit)
                pub: 
                    04:e5:68:cb:3c:d0:40:99:12:fa:21:66:07:a7:ba:
                    b9:55:50:49:ef:5b:96:e8:d8:bc:bf:b5:8b:11:9d:
                    3f:f6:46:5a:56:e8:47:82:a6:11:aa:da:5e:39:62:
                    89:bd:af:d2:de:db:51:4d:a1:18:ae:48:52:ff:10:
                    a6:d2:f0:10:10
                ASN1 OID: prime256v1
                NIST CURVE: P-256
        X509v3 extensions:
            X509v3 CRL Distribution Points: 

                Full Name:
                  URI:http://localhost:3755/FabricImposter/crl/crl.pem

            X509v3 Subject Key Identifier: 
                F4:22:CA:3D:1F:E7:B6:1A:EF:24:DF:54:C4:E5:8F:47:97:7D:C0:CC
            X509v3 Authority Key Identifier: 
                keyid:F4:22:CA:3D:1F:E7:B6:1A:EF:24:DF:54:C4:E5:8F:47:97:7D:C0:CC
                DirName:/title=3/description=4/SN=5/searchGuide=6/businessCategory=7/postalAddress=8/postOfficeBox=9/physicalDeliveryOfficeName=10/telephoneNumber=11/telexNumber=12/teletexTerminalIdentifier=13/facsimileTelephoneNumber=14/x121Address=15/internationaliSDNNumber=16
                serial:69:4E:7E:D8:29:E7:A2:5B

            X509v3 Basic Constraints: critical
                CA:TRUE
            X509v3 Key Usage: 
                Certificate Sign, CRL Sign
            X509v3 Certificate Policies: 
                Policy: X509v3 Any Policy

            X509v3 Subject Alternative Name: 
                IP Address:9.37.17.64
    Signature Algorithm: ecdsa-with-SHA1
         30:46:02:21:00:d7:92:e7:fd:ef:7e:9f:01:97:07:ec:0f:a2:
         8a:b7:69:6f:8d:14:a0:88:9b:d4:d2:fd:67:49:d1:fa:53:8d:
         2a:02:21:00:bb:6d:09:56:86:a7:e8:41:62:64:af:41:1a:25:
         e9:b7:db:b5:a4:57:5d:63:19:5f:36:51:19:1e:94:8e:48:d9
-----BEGIN CERTIFICATE-----
MIIJHjCCCMSgAwIBAgIIaU5+2CnnolswCQYHKoZIzj0EATCCAmoxCjAIBgNVBAwM
ATMxCjAIBgNVBA0MATQxCjAIBgNVBAQMATUxCjAIBgNVBA4MATYxCjAIBgNVBA8M
ATcxCjAIBgNVBBAMATgxCjAIBgNVBBIMATkxCzAJBgNVBBMMAjEwMQswCQYDVQQU
DAIxMTELMAkGA1UEFQwCMTIxCzAJBgNVBBYMAjEzMQswCQYDVQQXDAIxNDELMAkG
A1UEGAwCMTUxCzAJBgNVBBkMAjE2MQswCQYDVQQaDAIxNzELMAkGA1UEGwwCMTgx
CzAJBgNVBBwMAjE5MQswCQYDVQQdDAIyMDELMAkGA1UEHgwCMjExCzAJBgNVBB8M
AjIyMQswCQYDVQQgDAIyMzELMAkGA1UEIQwCMjQxCzAJBgNVBCIMAjI1MQswCQYD
VQQjDAIyNjELMAkGA1UEJAwCMjcxCzAJBgNVBCUMAjI4MQswCQYDVQQmDAIyOTEL
MAkGA1UEJwwCMzAxCzAJBgNVBCgMAjMxMQswCQYDVQQpDAIzMjELMAkGA1UEKgwC
MzMxCzAJBgNVBCsMAjM0MQswCQYDVQQsDAIzNTELMAkGA1UELQwCMzYxCzAJBgNV
BC4TAjM3MQswCQYDVQQvDAIzODELMAkGA1UEMAwCMzkxCzAJBgNVBDEMAjQwMQsw
CQYDVQQyDAI0MTELMAkGA1UEMwwCNDIxCzAJBgNVBDQMAjQzMQswCQYDVQQ1DAI0
NDELMAkGA1UENgwCNDUxCzAJBgNVBEEMAjQ2MQswCQYDVQRIDAI0NzELMAkGA1UE
VwwCNDgxGTAXBgNVBAMMEGZhYnJpYy1jYS1zZXJ2ZXIwHhcNMTcxMDA2MTMxMDI2
WhcNMTgxMDA2MTMxMDI2WjCCAmoxCjAIBgNVBAwMATMxCjAIBgNVBA0MATQxCjAI
BgNVBAQMATUxCjAIBgNVBA4MATYxCjAIBgNVBA8MATcxCjAIBgNVBBAMATgxCjAI
BgNVBBIMATkxCzAJBgNVBBMMAjEwMQswCQYDVQQUDAIxMTELMAkGA1UEFQwCMTIx
CzAJBgNVBBYMAjEzMQswCQYDVQQXDAIxNDELMAkGA1UEGAwCMTUxCzAJBgNVBBkM
AjE2MQswCQYDVQQaDAIxNzELMAkGA1UEGwwCMTgxCzAJBgNVBBwMAjE5MQswCQYD
VQQdDAIyMDELMAkGA1UEHgwCMjExCzAJBgNVBB8MAjIyMQswCQYDVQQgDAIyMzEL
MAkGA1UEIQwCMjQxCzAJBgNVBCIMAjI1MQswCQYDVQQjDAIyNjELMAkGA1UEJAwC
MjcxCzAJBgNVBCUMAjI4MQswCQYDVQQmDAIyOTELMAkGA1UEJwwCMzAxCzAJBgNV
BCgMAjMxMQswCQYDVQQpDAIzMjELMAkGA1UEKgwCMzMxCzAJBgNVBCsMAjM0MQsw
CQYDVQQsDAIzNTELMAkGA1UELQwCMzYxCzAJBgNVBC4TAjM3MQswCQYDVQQvDAIz
ODELMAkGA1UEMAwCMzkxCzAJBgNVBDEMAjQwMQswCQYDVQQyDAI0MTELMAkGA1UE
MwwCNDIxCzAJBgNVBDQMAjQzMQswCQYDVQQ1DAI0NDELMAkGA1UENgwCNDUxCzAJ
BgNVBEEMAjQ2MQswCQYDVQRIDAI0NzELMAkGA1UEVwwCNDgxGTAXBgNVBAMMEGZh
YnJpYy1jYS1zZXJ2ZXIwWTATBgcqhkjOPQIBBggqhkjOPQMBBwNCAATlaMs80ECZ
EvohZgenurlVUEnvW5bo2Ly/tYsRnT/2RlpW6EeCphGq2l45Yom9r9Le21FNoRiu
SFL/EKbS8BAQo4IDTzCCA0swQQYDVR0fBDowODA2oDSgMoYwaHR0cDovL2xvY2Fs
aG9zdDozNzU1L0ZhYnJpY0ltcG9zdGVyL2NybC9jcmwucGVtMB0GA1UdDgQWBBT0
Iso9H+e2Gu8k31TE5Y9Hl33AzDCCAqMGA1UdIwSCApowggKWgBT0Iso9H+e2Gu8k
31TE5Y9Hl33AzKGCAnKkggJuMIICajEKMAgGA1UEDAwBMzEKMAgGA1UEDQwBNDEK
MAgGA1UEBAwBNTEKMAgGA1UEDgwBNjEKMAgGA1UEDwwBNzEKMAgGA1UEEAwBODEK
MAgGA1UEEgwBOTELMAkGA1UEEwwCMTAxCzAJBgNVBBQMAjExMQswCQYDVQQVDAIx
MjELMAkGA1UEFgwCMTMxCzAJBgNVBBcMAjE0MQswCQYDVQQYDAIxNTELMAkGA1UE
GQwCMTYxCzAJBgNVBBoMAjE3MQswCQYDVQQbDAIxODELMAkGA1UEHAwCMTkxCzAJ
BgNVBB0MAjIwMQswCQYDVQQeDAIyMTELMAkGA1UEHwwCMjIxCzAJBgNVBCAMAjIz
MQswCQYDVQQhDAIyNDELMAkGA1UEIgwCMjUxCzAJBgNVBCMMAjI2MQswCQYDVQQk
DAIyNzELMAkGA1UEJQwCMjgxCzAJBgNVBCYMAjI5MQswCQYDVQQnDAIzMDELMAkG
A1UEKAwCMzExCzAJBgNVBCkMAjMyMQswCQYDVQQqDAIzMzELMAkGA1UEKwwCMzQx
CzAJBgNVBCwMAjM1MQswCQYDVQQtDAIzNjELMAkGA1UELhMCMzcxCzAJBgNVBC8M
AjM4MQswCQYDVQQwDAIzOTELMAkGA1UEMQwCNDAxCzAJBgNVBDIMAjQxMQswCQYD
VQQzDAI0MjELMAkGA1UENAwCNDMxCzAJBgNVBDUMAjQ0MQswCQYDVQQ2DAI0NTEL
MAkGA1UEQQwCNDYxCzAJBgNVBEgMAjQ3MQswCQYDVQRXDAI0ODEZMBcGA1UEAwwQ
ZmFicmljLWNhLXNlcnZlcoIIaU5+2CnnolswDwYDVR0TAQH/BAUwAwEB/zALBgNV
HQ8EBAMCAQYwEQYDVR0gBAowCDAGBgRVHSAAMA8GA1UdEQQIMAaHBAklEUAwCQYH
KoZIzj0EAQNJADBGAiEA15Ln/e9+nwGXB+wPooq3aW+NFKCIm9TS/WdJ0fpTjSoC
IQC7bQlWhqfoQWJkr0EaJem327WkV11jGV82URkelI5I2Q==
-----END CERTIFICATE-----
