Certificate:
    Data:
        Version: 3 (0x2)
        Serial Number: 1093313449328496541 (0xf2c3aca1f61cf9d)
    Signature Algorithm: ecdsa-with-SHA1
        Issuer: title=3/description=4, SN=5/searchGuide=6/businessCategory=7/postalAddress=8/postOfficeBox=9/physicalDeliveryOfficeName=10/telephoneNumber=11/telexNumber=12/teletexTerminalIdentifier=13/facsimileTelephoneNumber=14/x121Address=15/internationaliSDNNumber=16/registeredAddress=17/destinationIndicator=18/preferredDeliveryMethod=19/presentationAddress=20/supportedApplicationContext=21/member=22/owner=23/roleOccupant=24/seeAlso=25/userPassword=26/userCertificate=27/cACertificate=28/authorityRevocationList=29/certificateRevocationList=30/crossCertificatePair=31/name=32, GN=33/initials=34/generationQualifier=35/x500UniqueIdentifier=36/dnQualifier=37/enhancedSearchGuide=38/protocolInformation=39/distinguishedName=40/uniqueMember=41/houseIdentifier=42/supportedAlgorithms=43/deltaRevocationList=44/dmdName=45/pseudonym=46/role=47/url=48, CN=fabric-ca-server
        Validity
            Not Before: Oct  6 22:02:04 2017 GMT
            Not After : Jan  1 12:01:00 2037 GMT
        Subject: title=3/description=4, SN=5/searchGuide=6/businessCategory=7/postalAddress=8/postOfficeBox=9/physicalDeliveryOfficeName=10/telephoneNumber=11/telexNumber=12/teletexTerminalIdentifier=13/facsimileTelephoneNumber=14/x121Address=15/internationaliSDNNumber=16/registeredAddress=17/destinationIndicator=18/preferredDeliveryMethod=19/presentationAddress=20/supportedApplicationContext=21/member=22/owner=23/roleOccupant=24/seeAlso=25/userPassword=26/userCertificate=27/cACertificate=28/authorityRevocationList=29/certificateRevocationList=30/crossCertificatePair=31/name=32, GN=33/initials=34/generationQualifier=35/x500UniqueIdentifier=36/dnQualifier=37/enhancedSearchGuide=38/protocolInformation=39/distinguishedName=40/uniqueMember=41/houseIdentifier=42/supportedAlgorithms=43/deltaRevocationList=44/dmdName=45/pseudonym=46/role=47/url=48, CN=fabric-ca-server
        Subject Public Key Info:
            Public Key Algorithm: id-ecPublicKey
                Public-Key: (256 bit)
                pub: 
                    04:d2:03:b6:8c:9b:89:a9:a5:ae:6d:7a:11:a7:33:
                    8d:9f:1c:b8:c7:02:e2:e4:d7:17:c0:d4:9a:a2:ec:
                    d3:84:9d:9c:6e:c3:38:5e:be:e9:eb:a7:34:6f:5d:
                    5a:27:da:24:32:9f:14:cb:b5:67:12:31:d4:ad:e3:
                    99:13:95:ea:ee
                ASN1 OID: prime256v1
                NIST CURVE: P-256
        X509v3 extensions:
            X509v3 CRL Distribution Points: 

                Full Name:
                  URI:http://localhost:3755/FabricImposter/crl/crl.pem

            X509v3 Subject Key Identifier: 
                F8:0D:5B:47:50:8A:DA:95:BD:90:48:C4:53:60:6D:80:94:61:05:AE
            X509v3 Authority Key Identifier: 
                keyid:F8:0D:5B:47:50:8A:DA:95:BD:90:48:C4:53:60:6D:80:94:61:05:AE
                DirName:/title=3/description=4/SN=5/searchGuide=6/businessCategory=7/postalAddress=8/postOfficeBox=9/physicalDeliveryOfficeName=10/telephoneNumber=11/telexNumber=12/teletexTerminalIdentifier=13/facsimileTelephoneNumber=14/x121Address=15/internationaliSDNNumber=16
                serial:0F:2C:3A:CA:1F:61:CF:9D

            X509v3 Basic Constraints: critical
                CA:TRUE
            X509v3 Key Usage: 
                Certificate Sign, CRL Sign
            X509v3 Certificate Policies: 
                Policy: X509v3 Any Policy

            X509v3 Subject Alternative Name: 
                IP Address:9.37.17.64
    Signature Algorithm: ecdsa-with-SHA1
         30:45:02:20:3c:c3:d9:ca:24:3a:3b:60:b7:ce:f6:5b:4c:5d:
         00:01:cb:23:88:c7:51:18:e6:72:94:4d:38:af:20:df:7e:1e:
         02:21:00:c6:60:56:a3:19:bc:be:c0:23:29:db:d8:d9:ac:85:
         a0:af:3f:5b:df:8d:30:73:4c:c0:dc:3e:6b:9f:4b:5b:69
-----BEGIN CERTIFICATE-----
MIIJHzCCCMagAwIBAgIIDyw6yh9hz50wCQYHKoZIzj0EATCCAmoxCjAIBgNVBAwM
ATMxCjAIBgNVBA0MATQxCjAIBgNVBAQMATUxCjAIBgNVBA4MATYxCjAIBgNVBA8M
ATcxCjAIBgNVBBAMATgxCjAIBgNVBBIMATkxCzAJBgNVBBMMAjEwMQswCQYDVQQU
DAIxMTELMAkGA1UEFQwCMTIxCzAJBgNVBBYMAjEzMQswCQYDVQQXDAIxNDELMAkG
A1UEGAwCMTUxCzAJBgNVBBkMAjE2MQswCQYDVQQaDAIxNzELMAkGA1UEGwwCMTgx
CzAJBgNVBBwMAjE5MQswCQYDVQQdDAIyMDELMAkGA1UEHgwCMjExCzAJBgNVBB8M
AjIyMQswCQYDVQQgDAIyMzELMAkGA1UEIQwCMjQxCzAJBgNVBCIMAjI1MQswCQYD
VQQjDAIyNjELMAkGA1UEJAwCMjcxCzAJBgNVBCUMAjI4MQswCQYDVQQmDAIyOTEL
MAkGA1UEJwwCMzAxCzAJBgNVBCgMAjMxMQswCQYDVQQpDAIzMjELMAkGA1UEKgwC
MzMxCzAJBgNVBCsMAjM0MQswCQYDVQQsDAIzNTELMAkGA1UELQwCMzYxCzAJBgNV
BC4TAjM3MQswCQYDVQQvDAIzODELMAkGA1UEMAwCMzkxCzAJBgNVBDEMAjQwMQsw
CQYDVQQyDAI0MTELMAkGA1UEMwwCNDIxCzAJBgNVBDQMAjQzMQswCQYDVQQ1DAI0
NDELMAkGA1UENgwCNDUxCzAJBgNVBEEMAjQ2MQswCQYDVQRIDAI0NzELMAkGA1UE
VwwCNDgxGTAXBgNVBAMMEGZhYnJpYy1jYS1zZXJ2ZXIwIBcNMTcxMDA2MjIwMjA0
WhgPMjAzNzAxMDExMjAxMDBaMIICajEKMAgGA1UEDAwBMzEKMAgGA1UEDQwBNDEK
MAgGA1UEBAwBNTEKMAgGA1UEDgwBNjEKMAgGA1UEDwwBNzEKMAgGA1UEEAwBODEK
MAgGA1UEEgwBOTELMAkGA1UEEwwCMTAxCzAJBgNVBBQMAjExMQswCQYDVQQVDAIx
MjELMAkGA1UEFgwCMTMxCzAJBgNVBBcMAjE0MQswCQYDVQQYDAIxNTELMAkGA1UE
GQwCMTYxCzAJBgNVBBoMAjE3MQswCQYDVQQbDAIxODELMAkGA1UEHAwCMTkxCzAJ
BgNVBB0MAjIwMQswCQYDVQQeDAIyMTELMAkGA1UEHwwCMjIxCzAJBgNVBCAMAjIz
MQswCQYDVQQhDAIyNDELMAkGA1UEIgwCMjUxCzAJBgNVBCMMAjI2MQswCQYDVQQk
DAIyNzELMAkGA1UEJQwCMjgxCzAJBgNVBCYMAjI5MQswCQYDVQQnDAIzMDELMAkG
A1UEKAwCMzExCzAJBgNVBCkMAjMyMQswCQYDVQQqDAIzMzELMAkGA1UEKwwCMzQx
CzAJBgNVBCwMAjM1MQswCQYDVQQtDAIzNjELMAkGA1UELhMCMzcxCzAJBgNVBC8M
AjM4MQswCQYDVQQwDAIzOTELMAkGA1UEMQwCNDAxCzAJBgNVBDIMAjQxMQswCQYD
VQQzDAI0MjELMAkGA1UENAwCNDMxCzAJBgNVBDUMAjQ0MQswCQYDVQQ2DAI0NTEL
MAkGA1UEQQwCNDYxCzAJBgNVBEgMAjQ3MQswCQYDVQRXDAI0ODEZMBcGA1UEAwwQ
ZmFicmljLWNhLXNlcnZlcjBZMBMGByqGSM49AgEGCCqGSM49AwEHA0IABNIDtoyb
iamlrm16EaczjZ8cuMcC4uTXF8DUmqLs04SdnG7DOF6+6eunNG9dWifaJDKfFMu1
ZxIx1K3jmROV6u6jggNPMIIDSzBBBgNVHR8EOjA4MDagNKAyhjBodHRwOi8vbG9j
YWxob3N0OjM3NTUvRmFicmljSW1wb3N0ZXIvY3JsL2NybC5wZW0wHQYDVR0OBBYE
FPgNW0dQitqVvZBIxFNgbYCUYQWuMIICowYDVR0jBIICmjCCApaAFPgNW0dQitqV
vZBIxFNgbYCUYQWuoYICcqSCAm4wggJqMQowCAYDVQQMDAEzMQowCAYDVQQNDAE0
MQowCAYDVQQEDAE1MQowCAYDVQQODAE2MQowCAYDVQQPDAE3MQowCAYDVQQQDAE4
MQowCAYDVQQSDAE5MQswCQYDVQQTDAIxMDELMAkGA1UEFAwCMTExCzAJBgNVBBUM
AjEyMQswCQYDVQQWDAIxMzELMAkGA1UEFwwCMTQxCzAJBgNVBBgMAjE1MQswCQYD
VQQZDAIxNjELMAkGA1UEGgwCMTcxCzAJBgNVBBsMAjE4MQswCQYDVQQcDAIxOTEL
MAkGA1UEHQwCMjAxCzAJBgNVBB4MAjIxMQswCQYDVQQfDAIyMjELMAkGA1UEIAwC
MjMxCzAJBgNVBCEMAjI0MQswCQYDVQQiDAIyNTELMAkGA1UEIwwCMjYxCzAJBgNV
BCQMAjI3MQswCQYDVQQlDAIyODELMAkGA1UEJgwCMjkxCzAJBgNVBCcMAjMwMQsw
CQYDVQQoDAIzMTELMAkGA1UEKQwCMzIxCzAJBgNVBCoMAjMzMQswCQYDVQQrDAIz
NDELMAkGA1UELAwCMzUxCzAJBgNVBC0MAjM2MQswCQYDVQQuEwIzNzELMAkGA1UE
LwwCMzgxCzAJBgNVBDAMAjM5MQswCQYDVQQxDAI0MDELMAkGA1UEMgwCNDExCzAJ
BgNVBDMMAjQyMQswCQYDVQQ0DAI0MzELMAkGA1UENQwCNDQxCzAJBgNVBDYMAjQ1
MQswCQYDVQRBDAI0NjELMAkGA1UESAwCNDcxCzAJBgNVBFcMAjQ4MRkwFwYDVQQD
DBBmYWJyaWMtY2Etc2VydmVygggPLDrKH2HPnTAPBgNVHRMBAf8EBTADAQH/MAsG
A1UdDwQEAwIBBjARBgNVHSAECjAIMAYGBFUdIAAwDwYDVR0RBAgwBocECSURQDAJ
BgcqhkjOPQQBA0gAMEUCIDzD2cokOjtgt872W0xdAAHLI4jHURjmcpRNOK8g334e
AiEAxmBWoxm8vsAjKdvY2ayFoK8/W9+NMHNMwNw+a59LW2k=
-----END CERTIFICATE-----
