Certificate:
    Data:
        Version: 3 (0x2)
        Serial Number: 13591670196456013051 (0xbc9f50082c063cfb)
    Signature Algorithm: ecdsa-with-SHA1
        Issuer: C=10, ST=11, L=12, O=13, OU=14/street=15/serialNumber=58/title=16/description=17, SN=57/searchGuide=18/businessCategory=19/postalAddress=20/postalCode=21/postOfficeBox=22/physicalDeliveryOfficeName=23/telephoneNumber=24/telexNumber=25/teletexTerminalIdentifier=26/facsimileTelephoneNumber=27/x121Address=28/internationaliSDNNumber=29/registeredAddress=30/destinationIndicator=31/preferredDeliveryMethod=32/presentationAddress=33/supportedApplicationContext=34/roleOccupant=35/userPassword=36/userCertificate=37/cACertificate=38/authorityRevocationList=39/certificateRevocationList=40/crossCertificatePair=41/name=42, GN=56/initials=43/generationQualifier=44/x500UniqueIdentifier=45/dnQualifier=46/enhancedSearchGuide=47/protocolInformation=48/distinguishedName=49/uniqueMember=50/houseIdentifier=51/supportedAlgorithms=52/deltaRevocationList=53/pseudonym=54/role=55/url=localhost, CN=\xC3\xA6\xC2\x88\xC2\x88\xC3\xA5\xC2\xBC\xC2\x93
        Validity
            Not Before: Sep 26 12:39:31 2017 GMT
            Not After : Jan 31 12:00:00 2037 GMT
        Subject: C=10, ST=11, L=12, O=13, OU=14/street=15/serialNumber=58/title=16/description=17, SN=57/searchGuide=18/businessCategory=19/postalAddress=20/postalCode=21/postOfficeBox=22/physicalDeliveryOfficeName=23/telephoneNumber=24/telexNumber=25/teletexTerminalIdentifier=26/facsimileTelephoneNumber=27/x121Address=28/internationaliSDNNumber=29/registeredAddress=30/destinationIndicator=31/preferredDeliveryMethod=32/presentationAddress=33/supportedApplicationContext=34/roleOccupant=35/userPassword=36/userCertificate=37/cACertificate=38/authorityRevocationList=39/certificateRevocationList=40/crossCertificatePair=41/name=42, GN=56/initials=43/generationQualifier=44/x500UniqueIdentifier=45/dnQualifier=46/enhancedSearchGuide=47/protocolInformation=48/distinguishedName=49/uniqueMember=50/houseIdentifier=51/supportedAlgorithms=52/deltaRevocationList=53/pseudonym=54/role=55/url=localhost, CN=\xC3\xA6\xC2\x88\xC2\x88\xC3\xA5\xC2\xBC\xC2\x93
        Subject Public Key Info:
            Public Key Algorithm: id-ecPublicKey
                Public-Key: (256 bit)
                pub: 
                    04:b8:50:20:89:cb:21:26:04:25:3b:d6:28:f5:d5:
                    96:0b:5e:31:9c:db:c6:55:d5:0c:95:9a:a4:76:52:
                    23:89:4d:95:ce:9f:ba:9c:7c:a2:07:2d:26:ca:55:
                    0e:c6:67:34:90:c6:6e:96:7f:2a:74:82:0f:b6:34:
                    46:3e:04:f8:cd
                ASN1 OID: prime256v1
                NIST CURVE: P-256
        X509v3 extensions:
            X509v3 CRL Distribution Points: 

                Full Name:
                  URI:http://localhost:3755/longdnRoot/crl/crl.pem

            X509v3 Subject Key Identifier: 
                D2:93:22:C3:8A:31:02:1D:39:0C:E5:CF:BB:02:1B:D8:16:F2:67:D4
            X509v3 Authority Key Identifier: 
                keyid:D2:93:22:C3:8A:31:02:1D:39:0C:E5:CF:BB:02:1B:D8:16:F2:67:D4
                DirName:/C=10/ST=11/L=12/O=13/OU=14/street=15/serialNumber=58/title=16/description=17/SN=57/searchGuide=18/businessCategory=19/postalAddress=20/postalCode=21/postOfficeBox=22/physicalDeliveryOfficeName=23/telephoneNumber=24/telexNumber=25
                serial:BC:9F:50:08:2C:06:3C:FB

            X509v3 Basic Constraints: critical
                CA:TRUE
            X509v3 Key Usage: 
                Certificate Sign, CRL Sign
            X509v3 Certificate Policies: 
                Policy: X509v3 Any Policy

            X509v3 Subject Alternative Name: 
                IP Address:9.37.17.64
    Signature Algorithm: ecdsa-with-SHA1
         30:45:02:21:00:ab:05:f3:38:87:3c:05:aa:ae:3c:b8:8e:ce:
         ed:53:8c:9d:4d:36:69:4d:70:0f:23:9d:a4:be:4a:73:f2:ef:
         45:02:20:13:87:a5:f7:41:1f:64:af:4e:72:39:e1:fa:86:ff:
         ac:25:67:f4:c7:84:04:58:e7:42:84:22:5b:41:ca:a4:ec
-----BEGIN CERTIFICATE-----
MIIJ1zCCCX6gAwIBAgIJALyfUAgsBjz7MAkGByqGSM49BAEwggKoMQswCQYDVQQG
EwIxMDELMAkGA1UECAwCMTExCzAJBgNVBAcMAjEyMQswCQYDVQQKDAIxMzELMAkG
A1UECwwCMTQxCzAJBgNVBAkMAjE1MQswCQYDVQQFEwI1ODELMAkGA1UEDAwCMTYx
CzAJBgNVBA0MAjE3MQswCQYDVQQEDAI1NzELMAkGA1UEDgwCMTgxCzAJBgNVBA8M
AjE5MQswCQYDVQQQDAIyMDELMAkGA1UEEQwCMjExCzAJBgNVBBIMAjIyMQswCQYD
VQQTDAIyMzELMAkGA1UEFAwCMjQxCzAJBgNVBBUMAjI1MQswCQYDVQQWDAIyNjEL
MAkGA1UEFwwCMjcxCzAJBgNVBBgMAjI4MQswCQYDVQQZDAIyOTELMAkGA1UEGgwC
MzAxCzAJBgNVBBsMAjMxMQswCQYDVQQcDAIzMjELMAkGA1UEHQwCMzMxCzAJBgNV
BB4MAjM0MQswCQYDVQQhDAIzNTELMAkGA1UEIwwCMzYxCzAJBgNVBCQMAjM3MQsw
CQYDVQQlDAIzODELMAkGA1UEJgwCMzkxCzAJBgNVBCcMAjQwMQswCQYDVQQoDAI0
MTELMAkGA1UEKQwCNDIxCzAJBgNVBCoMAjU2MQswCQYDVQQrDAI0MzELMAkGA1UE
LAwCNDQxCzAJBgNVBC0MAjQ1MQswCQYDVQQuEwI0NjELMAkGA1UELwwCNDcxCzAJ
BgNVBDAMAjQ4MQswCQYDVQQxDAI0OTELMAkGA1UEMgwCNTAxCzAJBgNVBDMMAjUx
MQswCQYDVQQ0DAI1MjELMAkGA1UENQwCNTMxCzAJBgNVBEEMAjU0MQswCQYDVQRI
DAI1NTESMBAGA1UEVwwJbG9jYWxob3N0MRUwEwYDVQQDDAzDpsKIwojDpcK8wpMw
IBcNMTcwOTI2MTIzOTMxWhgPMjAzNzAxMzExMjAwMDBaMIICqDELMAkGA1UEBhMC
MTAxCzAJBgNVBAgMAjExMQswCQYDVQQHDAIxMjELMAkGA1UECgwCMTMxCzAJBgNV
BAsMAjE0MQswCQYDVQQJDAIxNTELMAkGA1UEBRMCNTgxCzAJBgNVBAwMAjE2MQsw
CQYDVQQNDAIxNzELMAkGA1UEBAwCNTcxCzAJBgNVBA4MAjE4MQswCQYDVQQPDAIx
OTELMAkGA1UEEAwCMjAxCzAJBgNVBBEMAjIxMQswCQYDVQQSDAIyMjELMAkGA1UE
EwwCMjMxCzAJBgNVBBQMAjI0MQswCQYDVQQVDAIyNTELMAkGA1UEFgwCMjYxCzAJ
BgNVBBcMAjI3MQswCQYDVQQYDAIyODELMAkGA1UEGQwCMjkxCzAJBgNVBBoMAjMw
MQswCQYDVQQbDAIzMTELMAkGA1UEHAwCMzIxCzAJBgNVBB0MAjMzMQswCQYDVQQe
DAIzNDELMAkGA1UEIQwCMzUxCzAJBgNVBCMMAjM2MQswCQYDVQQkDAIzNzELMAkG
A1UEJQwCMzgxCzAJBgNVBCYMAjM5MQswCQYDVQQnDAI0MDELMAkGA1UEKAwCNDEx
CzAJBgNVBCkMAjQyMQswCQYDVQQqDAI1NjELMAkGA1UEKwwCNDMxCzAJBgNVBCwM
AjQ0MQswCQYDVQQtDAI0NTELMAkGA1UELhMCNDYxCzAJBgNVBC8MAjQ3MQswCQYD
VQQwDAI0ODELMAkGA1UEMQwCNDkxCzAJBgNVBDIMAjUwMQswCQYDVQQzDAI1MTEL
MAkGA1UENAwCNTIxCzAJBgNVBDUMAjUzMQswCQYDVQRBDAI1NDELMAkGA1UESAwC
NTUxEjAQBgNVBFcMCWxvY2FsaG9zdDEVMBMGA1UEAwwMw6bCiMKIw6XCvMKTMFkw
EwYHKoZIzj0CAQYIKoZIzj0DAQcDQgAEuFAgicshJgQlO9Yo9dWWC14xnNvGVdUM
lZqkdlIjiU2Vzp+6nHyiBy0mylUOxmc0kMZuln8qdIIPtjRGPgT4zaOCA4owggOG
MD0GA1UdHwQ2MDQwMqAwoC6GLGh0dHA6Ly9sb2NhbGhvc3Q6Mzc1NS9sb25nZG5S
b290L2NybC9jcmwucGVtMB0GA1UdDgQWBBTSkyLDijECHTkM5c+7AhvYFvJn1DCC
AuIGA1UdIwSCAtkwggLVgBTSkyLDijECHTkM5c+7AhvYFvJn1KGCArCkggKsMIIC
qDELMAkGA1UEBhMCMTAxCzAJBgNVBAgMAjExMQswCQYDVQQHDAIxMjELMAkGA1UE
CgwCMTMxCzAJBgNVBAsMAjE0MQswCQYDVQQJDAIxNTELMAkGA1UEBRMCNTgxCzAJ
BgNVBAwMAjE2MQswCQYDVQQNDAIxNzELMAkGA1UEBAwCNTcxCzAJBgNVBA4MAjE4
MQswCQYDVQQPDAIxOTELMAkGA1UEEAwCMjAxCzAJBgNVBBEMAjIxMQswCQYDVQQS
DAIyMjELMAkGA1UEEwwCMjMxCzAJBgNVBBQMAjI0MQswCQYDVQQVDAIyNTELMAkG
A1UEFgwCMjYxCzAJBgNVBBcMAjI3MQswCQYDVQQYDAIyODELMAkGA1UEGQwCMjkx
CzAJBgNVBBoMAjMwMQswCQYDVQQbDAIzMTELMAkGA1UEHAwCMzIxCzAJBgNVBB0M
AjMzMQswCQYDVQQeDAIzNDELMAkGA1UEIQwCMzUxCzAJBgNVBCMMAjM2MQswCQYD
VQQkDAIzNzELMAkGA1UEJQwCMzgxCzAJBgNVBCYMAjM5MQswCQYDVQQnDAI0MDEL
MAkGA1UEKAwCNDExCzAJBgNVBCkMAjQyMQswCQYDVQQqDAI1NjELMAkGA1UEKwwC
NDMxCzAJBgNVBCwMAjQ0MQswCQYDVQQtDAI0NTELMAkGA1UELhMCNDYxCzAJBgNV
BC8MAjQ3MQswCQYDVQQwDAI0ODELMAkGA1UEMQwCNDkxCzAJBgNVBDIMAjUwMQsw
CQYDVQQzDAI1MTELMAkGA1UENAwCNTIxCzAJBgNVBDUMAjUzMQswCQYDVQRBDAI1
NDELMAkGA1UESAwCNTUxEjAQBgNVBFcMCWxvY2FsaG9zdDEVMBMGA1UEAwwMw6bC
iMKIw6XCvMKTggkAvJ9QCCwGPPswDwYDVR0TAQH/BAUwAwEB/zALBgNVHQ8EBAMC
AQYwEQYDVR0gBAowCDAGBgRVHSAAMA8GA1UdEQQIMAaHBAklEUAwCQYHKoZIzj0E
AQNIADBFAiEAqwXzOIc8BaquPLiOzu1TjJ1NNmlNcA8jnaS+SnPy70UCIBOHpfdB
H2SvTnI54fqG/6wlZ/THhARY50KEIltByqTs
-----END CERTIFICATE-----
