Certificate:
    Data:
        Version: 3 (0x2)
        Serial Number: 7877158294459120935 (0x6d5149bbdcc1fd27)
    Signature Algorithm: ecdsa-with-SHA1
        Issuer: title=3/description=4, SN=5/searchGuide=6/businessCategory=7/postalAddress=8/postOfficeBox=9/physicalDeliveryOfficeName=10/telephoneNumber=11/telexNumber=12/teletexTerminalIdentifier=13/facsimileTelephoneNumber=14/x121Address=15/internationaliSDNNumber=16/registeredAddress=17/destinationIndicator=18/preferredDeliveryMethod=19/presentationAddress=20/supportedApplicationContext=21/member=22/owner=23/roleOccupant=24/seeAlso=25/userPassword=26/userCertificate=27/cACertificate=28/authorityRevocationList=29/certificateRevocationList=30/crossCertificatePair=31/name=32, GN=33/initials=34/generationQualifier=35/x500UniqueIdentifier=36/dnQualifier=37/enhancedSearchGuide=38/protocolInformation=39/distinguishedName=40/uniqueMember=41/houseIdentifier=42/supportedAlgorithms=43/deltaRevocationList=44/dmdName=45/pseudonym=46/role=47/url=48, CN=fabric-ca-server
        Validity
            Not Before: Oct  6 19:42:45 2017 GMT
            Not After : Jan 31 12:01:00 2037
        Subject: title=3/description=4, SN=5/searchGuide=6/businessCategory=7/postalAddress=8/postOfficeBox=9/physicalDeliveryOfficeName=10/telephoneNumber=11/telexNumber=12/teletexTerminalIdentifier=13/facsimileTelephoneNumber=14/x121Address=15/internationaliSDNNumber=16/registeredAddress=17/destinationIndicator=18/preferredDeliveryMethod=19/presentationAddress=20/supportedApplicationContext=21/member=22/owner=23/roleOccupant=24/seeAlso=25/userPassword=26/userCertificate=27/cACertificate=28/authorityRevocationList=29/certificateRevocationList=30/crossCertificatePair=31/name=32, GN=33/initials=34/generationQualifier=35/x500UniqueIdentifier=36/dnQualifier=37/enhancedSearchGuide=38/protocolInformation=39/distinguishedName=40/uniqueMember=41/houseIdentifier=42/supportedAlgorithms=43/deltaRevocationList=44/dmdName=45/pseudonym=46/role=47/url=48, CN=fabric-ca-server
        Subject Public Key Info:
            Public Key Algorithm: id-ecPublicKey
                Public-Key: (256 bit)
                pub: 
                    04:3a:3d:db:92:13:cf:3f:a2:d7:1d:30:39:de:8e:
                    97:7e:d4:22:27:46:e6:25:56:07:8d:df:62:21:c4:
                    7d:05:12:ef:02:9b:2d:dd:92:4b:71:9f:5a:18:83:
                    79:f2:cd:31:a2:78:5a:fb:45:13:65:ac:93:81:df:
                    3d:4e:e2:06:83
                ASN1 OID: prime256v1
                NIST CURVE: P-256
        X509v3 extensions:
            X509v3 CRL Distribution Points: 

                Full Name:
                  URI:http://localhost:3755/FabricImposter/crl/crl.pem

            X509v3 Subject Key Identifier: 
                20:26:63:5C:43:1A:BA:99:FB:89:C0:33:DE:A0:32:53:82:6A:C3:A9
            X509v3 Authority Key Identifier: 
                keyid:20:26:63:5C:43:1A:BA:99:FB:89:C0:33:DE:A0:32:53:82:6A:C3:A9
                DirName:/title=3/description=4/SN=5/searchGuide=6/businessCategory=7/postalAddress=8/postOfficeBox=9/physicalDeliveryOfficeName=10/telephoneNumber=11/telexNumber=12/teletexTerminalIdentifier=13/facsimileTelephoneNumber=14/x121Address=15/internationaliSDNNumber=16
                serial:6D:51:49:BB:DC:C1:FD:27

            X509v3 Basic Constraints: critical
                CA:TRUE
            X509v3 Key Usage: 
                Certificate Sign, CRL Sign
            X509v3 Certificate Policies: 
                Policy: X509v3 Any Policy

            X509v3 Subject Alternative Name: 
                IP Address:9.37.17.64
    Signature Algorithm: ecdsa-with-SHA1
         30:45:02:20:27:e5:39:0b:22:e3:39:79:2e:1e:ad:8f:40:e7:
         36:ac:21:d4:a2:a1:75:90:85:d5:4a:0f:81:ea:3f:16:38:18:
         02:21:00:87:be:9a:b3:ac:13:37:f3:4d:cb:13:d7:c2:b3:af:
         0e:99:74:51:11:15:4e:7e:57:0a:d1:7d:1f:96:88:a3:4d
-----BEGIN CERTIFICATE-----
MIIJHjCCCMWgAwIBAgIIbVFJu9zB/ScwCQYHKoZIzj0EATCCAmoxCjAIBgNVBAwM
ATMxCjAIBgNVBA0MATQxCjAIBgNVBAQMATUxCjAIBgNVBA4MATYxCjAIBgNVBA8M
ATcxCjAIBgNVBBAMATgxCjAIBgNVBBIMATkxCzAJBgNVBBMMAjEwMQswCQYDVQQU
DAIxMTELMAkGA1UEFQwCMTIxCzAJBgNVBBYMAjEzMQswCQYDVQQXDAIxNDELMAkG
A1UEGAwCMTUxCzAJBgNVBBkMAjE2MQswCQYDVQQaDAIxNzELMAkGA1UEGwwCMTgx
CzAJBgNVBBwMAjE5MQswCQYDVQQdDAIyMDELMAkGA1UEHgwCMjExCzAJBgNVBB8M
AjIyMQswCQYDVQQgDAIyMzELMAkGA1UEIQwCMjQxCzAJBgNVBCIMAjI1MQswCQYD
VQQjDAIyNjELMAkGA1UEJAwCMjcxCzAJBgNVBCUMAjI4MQswCQYDVQQmDAIyOTEL
MAkGA1UEJwwCMzAxCzAJBgNVBCgMAjMxMQswCQYDVQQpDAIzMjELMAkGA1UEKgwC
MzMxCzAJBgNVBCsMAjM0MQswCQYDVQQsDAIzNTELMAkGA1UELQwCMzYxCzAJBgNV
BC4TAjM3MQswCQYDVQQvDAIzODELMAkGA1UEMAwCMzkxCzAJBgNVBDEMAjQwMQsw
CQYDVQQyDAI0MTELMAkGA1UEMwwCNDIxCzAJBgNVBDQMAjQzMQswCQYDVQQ1DAI0
NDELMAkGA1UENgwCNDUxCzAJBgNVBEEMAjQ2MQswCQYDVQRIDAI0NzELMAkGA1UE
VwwCNDgxGTAXBgNVBAMMEGZhYnJpYy1jYS1zZXJ2ZXIwHxcNMTcxMDA2MTk0MjQ1
WhgOMjAzNzAxMzExMjAxMDAwggJqMQowCAYDVQQMDAEzMQowCAYDVQQNDAE0MQow
CAYDVQQEDAE1MQowCAYDVQQODAE2MQowCAYDVQQPDAE3MQowCAYDVQQQDAE4MQow
CAYDVQQSDAE5MQswCQYDVQQTDAIxMDELMAkGA1UEFAwCMTExCzAJBgNVBBUMAjEy
MQswCQYDVQQWDAIxMzELMAkGA1UEFwwCMTQxCzAJBgNVBBgMAjE1MQswCQYDVQQZ
DAIxNjELMAkGA1UEGgwCMTcxCzAJBgNVBBsMAjE4MQswCQYDVQQcDAIxOTELMAkG
A1UEHQwCMjAxCzAJBgNVBB4MAjIxMQswCQYDVQQfDAIyMjELMAkGA1UEIAwCMjMx
CzAJBgNVBCEMAjI0MQswCQYDVQQiDAIyNTELMAkGA1UEIwwCMjYxCzAJBgNVBCQM
AjI3MQswCQYDVQQlDAIyODELMAkGA1UEJgwCMjkxCzAJBgNVBCcMAjMwMQswCQYD
VQQoDAIzMTELMAkGA1UEKQwCMzIxCzAJBgNVBCoMAjMzMQswCQYDVQQrDAIzNDEL
MAkGA1UELAwCMzUxCzAJBgNVBC0MAjM2MQswCQYDVQQuEwIzNzELMAkGA1UELwwC
MzgxCzAJBgNVBDAMAjM5MQswCQYDVQQxDAI0MDELMAkGA1UEMgwCNDExCzAJBgNV
BDMMAjQyMQswCQYDVQQ0DAI0MzELMAkGA1UENQwCNDQxCzAJBgNVBDYMAjQ1MQsw
CQYDVQRBDAI0NjELMAkGA1UESAwCNDcxCzAJBgNVBFcMAjQ4MRkwFwYDVQQDDBBm
YWJyaWMtY2Etc2VydmVyMFkwEwYHKoZIzj0CAQYIKoZIzj0DAQcDQgAEOj3bkhPP
P6LXHTA53o6XftQiJ0bmJVYHjd9iIcR9BRLvApst3ZJLcZ9aGIN58s0xonha+0UT
ZayTgd89TuIGg6OCA08wggNLMEEGA1UdHwQ6MDgwNqA0oDKGMGh0dHA6Ly9sb2Nh
bGhvc3Q6Mzc1NS9GYWJyaWNJbXBvc3Rlci9jcmwvY3JsLnBlbTAdBgNVHQ4EFgQU
ICZjXEMaupn7icAz3qAyU4Jqw6kwggKjBgNVHSMEggKaMIICloAUICZjXEMaupn7
icAz3qAyU4Jqw6mhggJypIICbjCCAmoxCjAIBgNVBAwMATMxCjAIBgNVBA0MATQx
CjAIBgNVBAQMATUxCjAIBgNVBA4MATYxCjAIBgNVBA8MATcxCjAIBgNVBBAMATgx
CjAIBgNVBBIMATkxCzAJBgNVBBMMAjEwMQswCQYDVQQUDAIxMTELMAkGA1UEFQwC
MTIxCzAJBgNVBBYMAjEzMQswCQYDVQQXDAIxNDELMAkGA1UEGAwCMTUxCzAJBgNV
BBkMAjE2MQswCQYDVQQaDAIxNzELMAkGA1UEGwwCMTgxCzAJBgNVBBwMAjE5MQsw
CQYDVQQdDAIyMDELMAkGA1UEHgwCMjExCzAJBgNVBB8MAjIyMQswCQYDVQQgDAIy
MzELMAkGA1UEIQwCMjQxCzAJBgNVBCIMAjI1MQswCQYDVQQjDAIyNjELMAkGA1UE
JAwCMjcxCzAJBgNVBCUMAjI4MQswCQYDVQQmDAIyOTELMAkGA1UEJwwCMzAxCzAJ
BgNVBCgMAjMxMQswCQYDVQQpDAIzMjELMAkGA1UEKgwCMzMxCzAJBgNVBCsMAjM0
MQswCQYDVQQsDAIzNTELMAkGA1UELQwCMzYxCzAJBgNVBC4TAjM3MQswCQYDVQQv
DAIzODELMAkGA1UEMAwCMzkxCzAJBgNVBDEMAjQwMQswCQYDVQQyDAI0MTELMAkG
A1UEMwwCNDIxCzAJBgNVBDQMAjQzMQswCQYDVQQ1DAI0NDELMAkGA1UENgwCNDUx
CzAJBgNVBEEMAjQ2MQswCQYDVQRIDAI0NzELMAkGA1UEVwwCNDgxGTAXBgNVBAMM
EGZhYnJpYy1jYS1zZXJ2ZXKCCG1RSbvcwf0nMA8GA1UdEwEB/wQFMAMBAf8wCwYD
VR0PBAQDAgEGMBEGA1UdIAQKMAgwBgYEVR0gADAPBgNVHREECDAGhwQJJRFAMAkG
ByqGSM49BAEDSAAwRQIgJ+U5CyLjOXkuHq2PQOc2rCHUoqF1kIXVSg+B6j8WOBgC
IQCHvpqzrBM3803LE9fCs68OmXRRERVOflcK0X0floijTQ==
-----END CERTIFICATE-----
